; Function Attrs: mustprogress uwtable
define dso_local void @_ZN3url18EncodeURIComponentEPKciPNS_12CanonOutputTIcEE(ptr nocapture noundef readonly %input, i32 noundef %length, ptr noundef %output) local_unnamed_addr #0 {
entry:
  %cmp6 = icmp sgt i32 %length, 0
  br i1 %cmp6, label %for.body.lr.ph, label %for.end

for.body.lr.ph:                                   ; preds = %entry
  %cur_len_.i = getelementptr inbounds i8, ptr %output, i64 20
  %buffer_len_.i = getelementptr inbounds i8, ptr %output, i64 16
  %.sink.in.i = getelementptr inbounds i8, ptr %output, i64 8
  %wide.trip.count = zext nneg i32 %length to i64
  br label %for.body

for.body:                                         ; preds = %for.body.lr.ph, %for.inc
  %indvars.iv = phi i64 [ 0, %for.body.lr.ph ], [ %indvars.iv.next, %for.inc ]
  %arrayidx = getelementptr inbounds i8, ptr %input, i64 %indvars.iv
  %0 = load i8, ptr %arrayidx, align 1
  %idxprom.i.i = zext i8 %0 to i64
  %arrayidx.i.i = getelementptr inbounds [256 x i8], ptr @_ZN3url20kSharedCharTypeTableE, i64 0, i64 %idxprom.i.i
  %1 = load i8, ptr %arrayidx.i.i, align 1
  %2 = and i8 %1, 64
  %tobool.i.i.not = icmp eq i8 %2, 0
  br i1 %tobool.i.i.not, label %if.else, label %if.then

if.then:                                          ; preds = %for.body
  %3 = load i32, ptr %cur_len_.i, align 4
  %4 = load i32, ptr %buffer_len_.i, align 8
  %cmp.i = icmp slt i32 %3, %4
  br i1 %cmp.i, label %return.sink.split.i, label %if.end.i

if.end.i:                                         ; preds = %if.then
  %cmp.i.i = icmp eq i32 %4, 0
  %spec.select = select i1 %cmp.i.i, i32 16, i32 %4
  br label %do.body.i.i

do.body.i.i:                                      ; preds = %if.end.i, %if.end.i.i
  %new_len.0.i.i = phi i32 [ %mul.i.i, %if.end.i.i ], [ %spec.select, %if.end.i ]
  %cmp3.i.i = icmp slt i32 %new_len.0.i.i, 1073741824
  br i1 %cmp3.i.i, label %if.end.i.i, label %for.inc

if.end.i.i:                                       ; preds = %do.body.i.i
  %mul.i.i = shl nsw i32 %new_len.0.i.i, 1
  %cmp5.i.not.i = icmp sgt i32 %mul.i.i, %4
  br i1 %cmp5.i.not.i, label %if.end5.i, label %do.body.i.i, !llvm.loop !7

if.end5.i:                                        ; preds = %if.end.i.i
  %vtable.i.i = load ptr, ptr %output, align 8
  %vfn.i.i = getelementptr inbounds i8, ptr %vtable.i.i, i64 16
  %5 = load ptr, ptr %vfn.i.i, align 8
  tail call void %5(ptr noundef nonnull align 8 dereferenceable(24) %output, i32 noundef %mul.i.i)
  %6 = load i32, ptr %cur_len_.i, align 4
  br label %return.sink.split.i

return.sink.split.i:                              ; preds = %if.then, %if.end5.i
  %.sink2.i = phi i32 [ %6, %if.end5.i ], [ %3, %if.then ]
  %.sink.i = load ptr, ptr %.sink.in.i, align 8
  %idxprom8.i = sext i32 %.sink2.i to i64
  %arrayidx9.i = getelementptr inbounds i8, ptr %.sink.i, i64 %idxprom8.i
  store i8 %0, ptr %arrayidx9.i, align 1
  %7 = load i32, ptr %cur_len_.i, align 4
  %inc11.i = add nsw i32 %7, 1
  store i32 %inc11.i, ptr %cur_len_.i, align 4
  br label %for.inc

if.else:                                          ; preds = %for.body
  tail call void @_ZN3url17AppendEscapedCharIhcEEvT_PNS_12CanonOutputTIT0_EE(i8 noundef zeroext %0, ptr noundef %output)
  br label %for.inc

for.inc:                                          ; preds = %do.body.i.i, %return.sink.split.i, %if.else
  %indvars.iv.next = add nuw nsw i64 %indvars.iv, 1
  %exitcond.not = icmp eq i64 %indvars.iv.next, %wide.trip.count
  br i1 %exitcond.not, label %for.end, label %for.body, !llvm.loop !13

for.end:                                          ; preds = %for.inc, %entry
  ret void
}